; ModuleID = '57/3212.c'
source_filename = "57/3212.c"
target datalayout = "e-m:e-p270:32:32-p271:32:32-p272:64:64-i64:64-f80:128-n8:16:32:64-S128"
target triple = "x86_64-pc-linux-gnu"

@.str = private unnamed_addr constant [3 x i8] c"%d\00", align 1
@.str.1 = private unnamed_addr constant [3 x i8] c"%s\00", align 1
@.str.2 = private unnamed_addr constant [3 x i8] c"%c\00", align 1
@.str.3 = private unnamed_addr constant [2 x i8] c"\0A\00", align 1

; Function Attrs: noinline nounwind uwtable
define dso_local void @main() #0 {
  %1 = alloca [50 x [25 x i8]], align 16
  %2 = alloca [50 x [25 x i8]], align 16
  %3 = alloca [50 x i32], align 16
  %4 = alloca i32, align 4
  %5 = alloca i32, align 4
  %6 = alloca i32, align 4
  %7 = alloca i32, align 4
  %8 = call i32 (i8*, ...) @__isoc99_scanf(i8* getelementptr inbounds ([3 x i8], [3 x i8]* @.str, i64 0, i64 0), i32* %6)
  store i32 0, i32* %4, align 4
  br label %9

9:                                                ; preds = %19, %0
  %10 = load i32, i32* %4, align 4
  %11 = load i32, i32* %6, align 4
  %12 = icmp slt i32 %10, %11
  br i1 %12, label %13, label %22

13:                                               ; preds = %9
  %14 = load i32, i32* %4, align 4
  %15 = sext i32 %14 to i64
  %16 = getelementptr inbounds [50 x [25 x i8]], [50 x [25 x i8]]* %1, i64 0, i64 %15
  %17 = getelementptr inbounds [25 x i8], [25 x i8]* %16, i64 0, i64 0
  %18 = call i32 (i8*, ...) @__isoc99_scanf(i8* getelementptr inbounds ([3 x i8], [3 x i8]* @.str.1, i64 0, i64 0), i8* %17)
  br label %19

19:                                               ; preds = %13
  %20 = load i32, i32* %4, align 4
  %21 = add nsw i32 %20, 1
  store i32 %21, i32* %4, align 4
  br label %9

22:                                               ; preds = %9
  store i32 0, i32* %4, align 4
  br label %23

23:                                               ; preds = %142, %22
  %24 = load i32, i32* %4, align 4
  %25 = load i32, i32* %6, align 4
  %26 = icmp slt i32 %24, %25
  br i1 %26, label %27, label %145

27:                                               ; preds = %23
  %28 = load i32, i32* %4, align 4
  %29 = sext i32 %28 to i64
  %30 = getelementptr inbounds [50 x [25 x i8]], [50 x [25 x i8]]* %1, i64 0, i64 %29
  %31 = getelementptr inbounds [25 x i8], [25 x i8]* %30, i64 0, i64 0
  %32 = call i64 @strlen(i8* %31) #3
  %33 = trunc i64 %32 to i32
  %34 = load i32, i32* %4, align 4
  %35 = sext i32 %34 to i64
  %36 = getelementptr inbounds [50 x i32], [50 x i32]* %3, i64 0, i64 %35
  store i32 %33, i32* %36, align 4
  %37 = load i32, i32* %4, align 4
  %38 = sext i32 %37 to i64
  %39 = getelementptr inbounds [50 x i32], [50 x i32]* %3, i64 0, i64 %38
  %40 = load i32, i32* %39, align 4
  store i32 %40, i32* %7, align 4
  %41 = load i32, i32* %4, align 4
  %42 = sext i32 %41 to i64
  %43 = getelementptr inbounds [50 x [25 x i8]], [50 x [25 x i8]]* %1, i64 0, i64 %42
  %44 = load i32, i32* %7, align 4
  %45 = sub nsw i32 %44, 1
  %46 = sext i32 %45 to i64
  %47 = getelementptr inbounds [25 x i8], [25 x i8]* %43, i64 0, i64 %46
  %48 = load i8, i8* %47, align 1
  %49 = sext i8 %48 to i32
  %50 = icmp eq i32 %49, 114
  br i1 %50, label %62, label %51

51:                                               ; preds = %27
  %52 = load i32, i32* %4, align 4
  %53 = sext i32 %52 to i64
  %54 = getelementptr inbounds [50 x [25 x i8]], [50 x [25 x i8]]* %1, i64 0, i64 %53
  %55 = load i32, i32* %7, align 4
  %56 = sub nsw i32 %55, 1
  %57 = sext i32 %56 to i64
  %58 = getelementptr inbounds [25 x i8], [25 x i8]* %54, i64 0, i64 %57
  %59 = load i8, i8* %58, align 1
  %60 = sext i8 %59 to i32
  %61 = icmp eq i32 %60, 121
  br i1 %61, label %62, label %95

62:                                               ; preds = %51, %27
  store i32 0, i32* %5, align 4
  br label %63

63:                                               ; preds = %91, %62
  %64 = load i32, i32* %5, align 4
  %65 = load i32, i32* %7, align 4
  %66 = sub nsw i32 %65, 2
  %67 = icmp slt i32 %64, %66
  br i1 %67, label %68, label %94

68:                                               ; preds = %63
  %69 = load i32, i32* %4, align 4
  %70 = sext i32 %69 to i64
  %71 = getelementptr inbounds [50 x [25 x i8]], [50 x [25 x i8]]* %1, i64 0, i64 %70
  %72 = load i32, i32* %5, align 4
  %73 = sext i32 %72 to i64
  %74 = getelementptr inbounds [25 x i8], [25 x i8]* %71, i64 0, i64 %73
  %75 = load i8, i8* %74, align 1
  %76 = load i32, i32* %4, align 4
  %77 = sext i32 %76 to i64
  %78 = getelementptr inbounds [50 x [25 x i8]], [50 x [25 x i8]]* %2, i64 0, i64 %77
  %79 = load i32, i32* %5, align 4
  %80 = sext i32 %79 to i64
  %81 = getelementptr inbounds [25 x i8], [25 x i8]* %78, i64 0, i64 %80
  store i8 %75, i8* %81, align 1
  %82 = load i32, i32* %4, align 4
  %83 = sext i32 %82 to i64
  %84 = getelementptr inbounds [50 x [25 x i8]], [50 x [25 x i8]]* %2, i64 0, i64 %83
  %85 = load i32, i32* %5, align 4
  %86 = sext i32 %85 to i64
  %87 = getelementptr inbounds [25 x i8], [25 x i8]* %84, i64 0, i64 %86
  %88 = load i8, i8* %87, align 1
  %89 = sext i8 %88 to i32
  %90 = call i32 (i8*, ...) @printf(i8* getelementptr inbounds ([3 x i8], [3 x i8]* @.str.2, i64 0, i64 0), i32 %89)
  br label %91

91:                                               ; preds = %68
  %92 = load i32, i32* %5, align 4
  %93 = add nsw i32 %92, 1
  store i32 %93, i32* %5, align 4
  br label %63

94:                                               ; preds = %63
  br label %140

95:                                               ; preds = %51
  %96 = load i32, i32* %4, align 4
  %97 = sext i32 %96 to i64
  %98 = getelementptr inbounds [50 x [25 x i8]], [50 x [25 x i8]]* %1, i64 0, i64 %97
  %99 = load i32, i32* %7, align 4
  %100 = sub nsw i32 %99, 1
  %101 = sext i32 %100 to i64
  %102 = getelementptr inbounds [25 x i8], [25 x i8]* %98, i64 0, i64 %101
  %103 = load i8, i8* %102, align 1
  %104 = sext i8 %103 to i32
  %105 = icmp eq i32 %104, 103
  br i1 %105, label %106, label %139

106:                                              ; preds = %95
  store i32 0, i32* %5, align 4
  br label %107

107:                                              ; preds = %135, %106
  %108 = load i32, i32* %5, align 4
  %109 = load i32, i32* %7, align 4
  %110 = sub nsw i32 %109, 3
  %111 = icmp slt i32 %108, %110
  br i1 %111, label %112, label %138

112:                                              ; preds = %107
  %113 = load i32, i32* %4, align 4
  %114 = sext i32 %113 to i64
  %115 = getelementptr inbounds [50 x [25 x i8]], [50 x [25 x i8]]* %1, i64 0, i64 %114
  %116 = load i32, i32* %5, align 4
  %117 = sext i32 %116 to i64
  %118 = getelementptr inbounds [25 x i8], [25 x i8]* %115, i64 0, i64 %117
  %119 = load i8, i8* %118, align 1
  %120 = load i32, i32* %4, align 4
  %121 = sext i32 %120 to i64
  %122 = getelementptr inbounds [50 x [25 x i8]], [50 x [25 x i8]]* %2, i64 0, i64 %121
  %123 = load i32, i32* %5, align 4
  %124 = sext i32 %123 to i64
  %125 = getelementptr inbounds [25 x i8], [25 x i8]* %122, i64 0, i64 %124
  store i8 %119, i8* %125, align 1
  %126 = load i32, i32* %4, align 4
  %127 = sext i32 %126 to i64
  %128 = getelementptr inbounds [50 x [25 x i8]], [50 x [25 x i8]]* %2, i64 0, i64 %127
  %129 = load i32, i32* %5, align 4
  %130 = sext i32 %129 to i64
  %131 = getelementptr inbounds [25 x i8], [25 x i8]* %128, i64 0, i64 %130
  %132 = load i8, i8* %131, align 1
  %133 = sext i8 %132 to i32
  %134 = call i32 (i8*, ...) @printf(i8* getelementptr inbounds ([3 x i8], [3 x i8]* @.str.2, i64 0, i64 0), i32 %133)
  br label %135

135:                                              ; preds = %112
  %136 = load i32, i32* %5, align 4
  %137 = add nsw i32 %136, 1
  store i32 %137, i32* %5, align 4
  br label %107

138:                                              ; preds = %107
  br label %139

139:                                              ; preds = %138, %95
  br label %140

140:                                              ; preds = %139, %94
  %141 = call i32 (i8*, ...) @printf(i8* getelementptr inbounds ([2 x i8], [2 x i8]* @.str.3, i64 0, i64 0))
  br label %142

142:                                              ; preds = %140
  %143 = load i32, i32* %4, align 4
  %144 = add nsw i32 %143, 1
  store i32 %144, i32* %4, align 4
  br label %23

145:                                              ; preds = %23
  ret void
}

declare dso_local i32 @__isoc99_scanf(i8*, ...) #1

; Function Attrs: nounwind readonly
declare dso_local i64 @strlen(i8*) #2

declare dso_local i32 @printf(i8*, ...) #1


!llvm.module.flags = !{!0}
!llvm.ident = !{!1}

!0 = !{i32 1, !"wchar_size", i32 4}
!1 = !{!"clang version 10.0.0-4ubuntu1 "}
